; Function Attrs: mustprogress nounwind uwtable
define dso_local void @_ZN4llvm18BlockFrequencyInfo13releaseMemoryEv(ptr nocapture noundef nonnull align 8 dereferenceable(8) %0) local_unnamed_addr #0 align 2 {
  %2 = load ptr, ptr %0, align 8
  store ptr null, ptr %0, align 8
  %.not.i.i = icmp eq ptr %2, null
  br i1 %.not.i.i, label %_ZNSt10unique_ptrIN4llvm22BlockFrequencyInfoImplINS0_10BasicBlockEEESt14default_deleteIS3_EE5resetEPS3_.exit, label %_ZNKSt14default_deleteIN4llvm22BlockFrequencyInfoImplINS0_10BasicBlockEEEEclEPS3_.exit.i.i

_ZNKSt14default_deleteIN4llvm22BlockFrequencyInfoImplINS0_10BasicBlockEEEEclEPS3_.exit.i.i: ; preds = %1
  %3 = load ptr, ptr %2, align 8
  %4 = getelementptr inbounds i8, ptr %3, i64 8
  %5 = load ptr, ptr %4, align 8
  tail call void %5(ptr noundef nonnull align 8 dereferenceable(184) %2) #23
  br label %_ZNSt10unique_ptrIN4llvm22BlockFrequencyInfoImplINS0_10BasicBlockEEESt14default_deleteIS3_EE5resetEPS3_.exit

_ZNSt10unique_ptrIN4llvm22BlockFrequencyInfoImplINS0_10BasicBlockEEESt14default_deleteIS3_EE5resetEPS3_.exit: ; preds = %1, %_ZNKSt14default_deleteIN4llvm22BlockFrequencyInfoImplINS0_10BasicBlockEEEEclEPS3_.exit.i.i
  ret void
}